; ModuleID = 'source-C-CXX/35/647.c'
source_filename = "source-C-CXX/35/647.c"
target datalayout = "e-m:e-p270:32:32-p271:32:32-p272:64:64-i64:64-f80:128-n8:16:32:64-S128"
target triple = "x86_64-pc-linux-gnu"

@.str = private unnamed_addr constant [5 x i8] c"%s%s\00", align 1
@.str.1 = private unnamed_addr constant [4 x i8] c"YES\00", align 1
@.str.2 = private unnamed_addr constant [3 x i8] c"NO\00", align 1

; Function Attrs: nofree nounwind sspstrong uwtable
define dso_local void @main() local_unnamed_addr #0 {
  %1 = alloca [100 x i8], align 16
  %2 = alloca [100 x i8], align 16
  %3 = getelementptr inbounds [100 x i8], [100 x i8]* %1, i64 0, i64 0
  call void @llvm.lifetime.start.p0i8(i64 100, i8* nonnull %3) #4
  %4 = getelementptr inbounds [100 x i8], [100 x i8]* %2, i64 0, i64 0
  call void @llvm.lifetime.start.p0i8(i64 100, i8* nonnull %4) #4
  %5 = call i32 (i8*, ...) @__isoc99_scanf(i8* getelementptr inbounds ([5 x i8], [5 x i8]* @.str, i64 0, i64 0), i8* nonnull %3, i8* nonnull %4)
  %6 = call i64 @strlen(i8* noundef nonnull %3) #5
  %7 = call i64 @strlen(i8* noundef nonnull %4) #5
  %8 = icmp eq i64 %6, %7
  br i1 %8, label %9, label %58

9:                                                ; preds = %0
  %10 = load i8, i8* %3, align 16, !tbaa !5
  %11 = icmp eq i8 %10, 0
  %12 = load i8, i8* %4, align 16
  %13 = icmp eq i8 %12, 0
  %14 = select i1 %11, i1 true, i1 %13
  br i1 %14, label %53, label %15

15:                                               ; preds = %9, %51
  %16 = phi i8 [ %52, %51 ], [ %12, %9 ]
  %17 = phi i64 [ %47, %51 ], [ 0, %9 ]
  %18 = phi i8 [ %49, %51 ], [ %10, %9 ]
  %19 = phi i32 [ %46, %51 ], [ 0, %9 ]
  %20 = icmp eq i8 %16, 0
  br i1 %20, label %45, label %21

21:                                               ; preds = %15, %40
  %22 = phi i64 [ %41, %40 ], [ 0, %15 ]
  %23 = phi i8 [ %43, %40 ], [ %16, %15 ]
  %24 = icmp eq i8 %18, %23
  br i1 %24, label %25, label %40

25:                                               ; preds = %21
  %26 = and i64 %22, 4294967295
  %27 = getelementptr inbounds [100 x i8], [100 x i8]* %2, i64 0, i64 %26
  %28 = load i8, i8* %27, align 1, !tbaa !5
  %29 = icmp eq i8 %28, 0
  br i1 %29, label %38, label %30

30:                                               ; preds = %25, %30
  %31 = phi i64 [ %33, %30 ], [ %26, %25 ]
  %32 = phi i8* [ %34, %30 ], [ %27, %25 ]
  %33 = add nuw nsw i64 %31, 1
  %34 = getelementptr inbounds [100 x i8], [100 x i8]* %2, i64 0, i64 %33
  %35 = load i8, i8* %34, align 1, !tbaa !5
  store i8 %35, i8* %32, align 1, !tbaa !5
  %36 = load i8, i8* %34, align 1, !tbaa !5
  %37 = icmp eq i8 %36, 0
  br i1 %37, label %38, label %30, !llvm.loop !8

38:                                               ; preds = %30, %25
  %39 = add nsw i32 %19, 1
  br label %45

40:                                               ; preds = %21
  %41 = add nuw i64 %22, 1
  %42 = getelementptr inbounds [100 x i8], [100 x i8]* %2, i64 0, i64 %41
  %43 = load i8, i8* %42, align 1, !tbaa !5
  %44 = icmp eq i8 %43, 0
  br i1 %44, label %45, label %21, !llvm.loop !10

45:                                               ; preds = %40, %15, %38
  %46 = phi i32 [ %39, %38 ], [ %19, %15 ], [ %19, %40 ]
  %47 = add nuw i64 %17, 1
  %48 = getelementptr inbounds [100 x i8], [100 x i8]* %1, i64 0, i64 %47
  %49 = load i8, i8* %48, align 1, !tbaa !5
  %50 = icmp eq i8 %49, 0
  br i1 %50, label %53, label %51, !llvm.loop !11

51:                                               ; preds = %45
  %52 = load i8, i8* %4, align 16, !tbaa !5
  br label %15

53:                                               ; preds = %45, %9
  %54 = phi i32 [ 0, %9 ], [ %46, %45 ]
  %55 = sext i32 %54 to i64
  %56 = icmp eq i64 %6, %55
  %57 = select i1 %56, i8* getelementptr inbounds ([4 x i8], [4 x i8]* @.str.1, i64 0, i64 0), i8* getelementptr inbounds ([3 x i8], [3 x i8]* @.str.2, i64 0, i64 0)
  br label %58

58:                                               ; preds = %0, %53
  %59 = phi i8* [ %57, %53 ], [ getelementptr inbounds ([3 x i8], [3 x i8]* @.str.2, i64 0, i64 0), %0 ]
  %60 = call i32 (i8*, ...) @printf(i8* nonnull dereferenceable(1) %59)
  call void @llvm.lifetime.end.p0i8(i64 100, i8* nonnull %4) #4
  call void @llvm.lifetime.end.p0i8(i64 100, i8* nonnull %3) #4
  ret void
}

; Function Attrs: argmemonly mustprogress nofree nosync nounwind willreturn
declare void @llvm.lifetime.start.p0i8(i64 immarg, i8* nocapture) #1

; Function Attrs: nofree nounwind
declare noundef i32 @__isoc99_scanf(i8* nocapture noundef readonly, ...) local_unnamed_addr #2

; Function Attrs: argmemonly mustprogress nofree nounwind readonly willreturn
declare i64 @strlen(i8* nocapture) local_unnamed_addr #3

; Function Attrs: nofree nounwind
declare noundef i32 @printf(i8* nocapture noundef readonly, ...) local_unnamed_addr #2

; Function Attrs: argmemonly mustprogress nofree nosync nounwind willreturn
declare void @llvm.lifetime.end.p0i8(i64 immarg, i8* nocapture) #1


!llvm.module.flags = !{!0, !1, !2, !3}
!llvm.ident = !{!4}

!0 = !{i32 1, !"wchar_size", i32 4}
!1 = !{i32 7, !"PIC Level", i32 2}
!2 = !{i32 7, !"PIE Level", i32 2}
!3 = !{i32 7, !"uwtable", i32 1}
!4 = !{!"clang version 13.0.0"}
!5 = !{!6, !6, i64 0}
!6 = !{!"omnipotent char", !7, i64 0}
!7 = !{!"Simple C/C++ TBAA"}
!8 = distinct !{!8, !9}
!9 = !{!"llvm.loop.mustprogress"}
!10 = distinct !{!10, !9}
!11 = distinct !{!11, !9, !12}
!12 = !{!"llvm.loop.unswitch.partial.disable"}
